; Function Attrs: nounwind uwtable
define double @dtgtk_gradient_slider_multivalue_get_value(ptr noundef %0, i32 noundef %1) local_unnamed_addr #0 {
  %3 = getelementptr inbounds nuw i8, ptr %0, i64 344
  %4 = load ptr, ptr %3, align 8, !tbaa !34
  %5 = getelementptr inbounds nuw i8, ptr %0, i64 64
  %6 = sext i32 %1 to i64
  %7 = getelementptr inbounds [10 x double], ptr %5, i64 0, i64 %6
  %8 = load double, ptr %7, align 8, !tbaa !37
  %9 = fptrunc reassoc nsz arcp contract afn double %8 to float
  %10 = tail call reassoc nsz arcp contract afn float %4(ptr noundef %0, float noundef %9, i32 noundef 2) #14
  %11 = fpext reassoc nsz arcp contract afn float %10 to double
  ret double %11
}